target datalayout = "e-m:e-p270:32:32-p271:32:32-p272:64:64-i64:64-i128:128-f80:128-n8:16:32:64-S128"
target triple = "x86_64-pc-linux-gnu"

%struct.CharRange = type { i32, i32, ptr, ptr, ptr }

; Function Attrs: nounwind uwtable
define internal i32 @max_int(i32 noundef %0, i32 noundef %1) #0 {
  %3 = alloca i32, align 4
  %4 = alloca i32, align 4
  %5 = alloca i32, align 4
  store i32 %0, ptr %4, align 4
  store i32 %1, ptr %5, align 4
  %6 = load i32, ptr %4, align 4
  %7 = load i32, ptr %5, align 4
  %8 = icmp sgt i32 %6, %7
  br i1 %8, label %9, label %11

9:                                                ; preds = %2
  %10 = load i32, ptr %4, align 4
  store i32 %10, ptr %3, align 4
  br label %13

11:                                               ; preds = %2
  %12 = load i32, ptr %5, align 4
  store i32 %12, ptr %3, align 4
  br label %13

13:                                               ; preds = %11, %9
  %14 = load i32, ptr %3, align 4
  ret i32 %14
}

; Function Attrs: nounwind uwtable
define dso_local i32 @cr_realloc(ptr noundef %0, i32 noundef %1) #0 {
  %3 = alloca i32, align 4
  %4 = alloca ptr, align 8
  %5 = alloca i32, align 4
  %6 = alloca i32, align 4
  %7 = alloca ptr, align 8
  store ptr %0, ptr %4, align 8
  store i32 %1, ptr %5, align 4
  %8 = load i32, ptr %5, align 4
  %9 = load ptr, ptr %4, align 8
  %10 = getelementptr inbounds %struct.CharRange, ptr %9, i32 0, i32 1
  %11 = load i32, ptr %10, align 4
  %12 = icmp sgt i32 %8, %11
  br i1 %12, label %13, label %44

13:                                               ; preds = %2
  %14 = load i32, ptr %5, align 4
  %15 = load ptr, ptr %4, align 8
  %16 = getelementptr inbounds %struct.CharRange, ptr %15, i32 0, i32 1
  %17 = load i32, ptr %16, align 4
  %18 = mul i32 %17, 3
  %19 = sdiv i32 %18, 2
  %20 = call i32 @max_int(i32 noundef %14, i32 noundef %19)
  store i32 %20, ptr %6, align 4
  %21 = load ptr, ptr %4, align 8
  %22 = getelementptr inbounds %struct.CharRange, ptr %21, i32 0, i32 4
  %23 = load ptr, ptr %22, align 8
  %24 = load ptr, ptr %4, align 8
  %25 = getelementptr inbounds %struct.CharRange, ptr %24, i32 0, i32 3
  %26 = load ptr, ptr %25, align 8
  %27 = load ptr, ptr %4, align 8
  %28 = getelementptr inbounds %struct.CharRange, ptr %27, i32 0, i32 2
  %29 = load ptr, ptr %28, align 8
  %30 = load i32, ptr %6, align 4
  %31 = sext i32 %30 to i64
  %32 = mul i64 %31, 4
  %33 = call ptr %23(ptr noundef %26, ptr noundef %29, i64 noundef %32)
  store ptr %33, ptr %7, align 8
  %34 = load ptr, ptr %7, align 8
  %35 = icmp ne ptr %34, null
  br i1 %35, label %37, label %36

36:                                               ; preds = %13
  store i32 -1, ptr %3, align 4
  br label %45

37:                                               ; preds = %13
  %38 = load ptr, ptr %7, align 8
  %39 = load ptr, ptr %4, align 8
  %40 = getelementptr inbounds %struct.CharRange, ptr %39, i32 0, i32 2
  store ptr %38, ptr %40, align 8
  %41 = load i32, ptr %6, align 4
  %42 = load ptr, ptr %4, align 8
  %43 = getelementptr inbounds %struct.CharRange, ptr %42, i32 0, i32 1
  store i32 %41, ptr %43, align 4
  br label %44

44:                                               ; preds = %37, %2
  store i32 0, ptr %3, align 4
  br label %45

45:                                               ; preds = %44, %36
  %46 = load i32, ptr %3, align 4
  ret i32 %46
}

; Function Attrs: nounwind uwtable
define internal i32 @cr_add_interval(ptr noundef %0, i32 noundef %1, i32 noundef %2) #0 {
  %4 = alloca i32, align 4
  %5 = alloca ptr, align 8
  %6 = alloca i32, align 4
  %7 = alloca i32, align 4
  store ptr %0, ptr %5, align 8
  store i32 %1, ptr %6, align 4
  store i32 %2, ptr %7, align 4
  %8 = load ptr, ptr %5, align 8
  %9 = getelementptr inbounds %struct.CharRange, ptr %8, i32 0, i32 0
  %10 = load i32, ptr %9, align 8
  %11 = add i32 %10, 2
  %12 = load ptr, ptr %5, align 8
  %13 = getelementptr inbounds %struct.CharRange, ptr %12, i32 0, i32 1
  %14 = load i32, ptr %13, align 4
  %15 = icmp sgt i32 %11, %14
  br i1 %15, label %16, label %26

16:                                               ; preds = %3
  %17 = load ptr, ptr %5, align 8
  %18 = load ptr, ptr %5, align 8
  %19 = getelementptr inbounds %struct.CharRange, ptr %18, i32 0, i32 0
  %20 = load i32, ptr %19, align 8
  %21 = add i32 %20, 2
  %22 = call i32 @cr_realloc(ptr noundef %17, i32 noundef %21)
  %23 = icmp ne i32 %22, 0
  br i1 %23, label %24, label %25

24:                                               ; preds = %16
  store i32 -1, ptr %4, align 4
  br label %47

25:                                               ; preds = %16
  br label %26

26:                                               ; preds = %25, %3
  %27 = load i32, ptr %6, align 4
  %28 = load ptr, ptr %5, align 8
  %29 = getelementptr inbounds %struct.CharRange, ptr %28, i32 0, i32 2
  %30 = load ptr, ptr %29, align 8
  %31 = load ptr, ptr %5, align 8
  %32 = getelementptr inbounds %struct.CharRange, ptr %31, i32 0, i32 0
  %33 = load i32, ptr %32, align 8
  %34 = add i32 %33, 1
  store i32 %34, ptr %32, align 8
  %35 = sext i32 %33 to i64
  %36 = getelementptr i32, ptr %30, i64 %35
  store i32 %27, ptr %36, align 4
  %37 = load i32, ptr %7, align 4
  %38 = load ptr, ptr %5, align 8
  %39 = getelementptr inbounds %struct.CharRange, ptr %38, i32 0, i32 2
  %40 = load ptr, ptr %39, align 8
  %41 = load ptr, ptr %5, align 8
  %42 = getelementptr inbounds %struct.CharRange, ptr %41, i32 0, i32 0
  %43 = load i32, ptr %42, align 8
  %44 = add i32 %43, 1
  store i32 %44, ptr %42, align 8
  %45 = sext i32 %43 to i64
  %46 = getelementptr i32, ptr %40, i64 %45
  store i32 %37, ptr %46, align 4
  store i32 0, ptr %4, align 4
  br label %47

47:                                               ; preds = %26, %24
  %48 = load i32, ptr %4, align 4
  ret i32 %48
}

; Function Attrs: nounwind uwtable
define internal i32 @unicode_general_category1(ptr noundef %0, i32 noundef %1) #0 {
  %3 = alloca i32, align 4
  %4 = alloca ptr, align 8
  %5 = alloca i32, align 4
  %6 = alloca ptr, align 8
  %7 = alloca ptr, align 8
  %8 = alloca i32, align 4
  %9 = alloca i32, align 4
  %10 = alloca i32, align 4
  %11 = alloca i32, align 4
  %12 = alloca i32, align 4
  store ptr %0, ptr %4, align 8
  store i32 %1, ptr %5, align 4
  store ptr @unicode_gc_table, ptr %6, align 8
  store ptr getelementptr (i8, ptr @unicode_gc_table, i64 3948), ptr %7, align 8
  store i32 0, ptr %8, align 4
  br label %13

13:                                               ; preds = %134, %2
  %14 = load ptr, ptr %6, align 8
  %15 = load ptr, ptr %7, align 8
  %16 = icmp ult ptr %14, %15
  br i1 %16, label %17, label %135

17:                                               ; preds = %13
  %18 = load ptr, ptr %6, align 8
  %19 = getelementptr i8, ptr %18, i32 1
  store ptr %19, ptr %6, align 8
  %20 = load i8, ptr %18, align 1
  %21 = zext i8 %20 to i32
  store i32 %21, ptr %10, align 4
  %22 = load i32, ptr %10, align 4
  %23 = lshr i32 %22, 5
  store i32 %23, ptr %11, align 4
  %24 = load i32, ptr %10, align 4
  %25 = and i32 %24, 31
  store i32 %25, ptr %12, align 4
  %26 = load i32, ptr %11, align 4
  %27 = icmp eq i32 %26, 7
  br i1 %27, label %28, label %75

28:                                               ; preds = %17
  %29 = load ptr, ptr %6, align 8
  %30 = getelementptr i8, ptr %29, i32 1
  store ptr %30, ptr %6, align 8
  %31 = load i8, ptr %29, align 1
  %32 = zext i8 %31 to i32
  store i32 %32, ptr %11, align 4
  %33 = load i32, ptr %11, align 4
  %34 = icmp ult i32 %33, 128
  br i1 %34, label %35, label %38

35:                                               ; preds = %28
  %36 = load i32, ptr %11, align 4
  %37 = add i32 %36, 7
  store i32 %37, ptr %11, align 4
  br label %74

38:                                               ; preds = %28
  %39 = load i32, ptr %11, align 4
  %40 = icmp ult i32 %39, 192
  br i1 %40, label %41, label %53

41:                                               ; preds = %38
  %42 = load i32, ptr %11, align 4
  %43 = sub i32 %42, 128
  %44 = shl i32 %43, 8
  store i32 %44, ptr %11, align 4
  %45 = load ptr, ptr %6, align 8
  %46 = getelementptr i8, ptr %45, i32 1
  store ptr %46, ptr %6, align 8
  %47 = load i8, ptr %45, align 1
  %48 = zext i8 %47 to i32
  %49 = load i32, ptr %11, align 4
  %50 = or i32 %49, %48
  store i32 %50, ptr %11, align 4
  %51 = load i32, ptr %11, align 4
  %52 = add i32 %51, 135
  store i32 %52, ptr %11, align 4
  br label %73

53:                                               ; preds = %38
  %54 = load i32, ptr %11, align 4
  %55 = sub i32 %54, 128
  %56 = sub i32 %55, 64
  %57 = shl i32 %56, 16
  store i32 %57, ptr %11, align 4
  %58 = load ptr, ptr %6, align 8
  %59 = getelementptr i8, ptr %58, i32 1
  store ptr %59, ptr %6, align 8
  %60 = load i8, ptr %58, align 1
  %61 = zext i8 %60 to i32
  %62 = shl i32 %61, 8
  %63 = load i32, ptr %11, align 4
  %64 = or i32 %63, %62
  store i32 %64, ptr %11, align 4
  %65 = load ptr, ptr %6, align 8
  %66 = getelementptr i8, ptr %65, i32 1
  store ptr %66, ptr %6, align 8
  %67 = load i8, ptr %65, align 1
  %68 = zext i8 %67 to i32
  %69 = load i32, ptr %11, align 4
  %70 = or i32 %69, %68
  store i32 %70, ptr %11, align 4
  %71 = load i32, ptr %11, align 4
  %72 = add i32 %71, 16519
  store i32 %72, ptr %11, align 4
  br label %73

73:                                               ; preds = %53, %41
  br label %74

74:                                               ; preds = %73, %35
  br label %75

75:                                               ; preds = %74, %17
  %76 = load i32, ptr %8, align 4
  store i32 %76, ptr %9, align 4
  %77 = load i32, ptr %11, align 4
  %78 = add i32 %77, 1
  %79 = load i32, ptr %8, align 4
  %80 = add i32 %79, %78
  store i32 %80, ptr %8, align 4
  %81 = load i32, ptr %12, align 4
  %82 = icmp eq i32 %81, 31
  br i1 %82, label %83, label %118

83:                                               ; preds = %75
  %84 = load i32, ptr %5, align 4
  %85 = and i32 %84, 6
  store i32 %85, ptr %10, align 4
  %86 = load i32, ptr %10, align 4
  %87 = icmp ne i32 %86, 0
  br i1 %87, label %88, label %117

88:                                               ; preds = %83
  %89 = load i32, ptr %10, align 4
  %90 = icmp eq i32 %89, 6
  br i1 %90, label %91, label %92

91:                                               ; preds = %88
  br label %125

92:                                               ; preds = %88
  %93 = load i32, ptr %5, align 4
  %94 = and i32 %93, 4
  %95 = icmp ne i32 %94, 0
  %96 = zext i1 %95 to i32
  %97 = load i32, ptr %9, align 4
  %98 = add i32 %97, %96
  store i32 %98, ptr %9, align 4
  br label %99

99:                                               ; preds = %112, %92
  %100 = load i32, ptr %9, align 4
  %101 = load i32, ptr %8, align 4
  %102 = icmp ult i32 %100, %101
  br i1 %102, label %103, label %115

103:                                              ; preds = %99
  %104 = load ptr, ptr %4, align 8
  %105 = load i32, ptr %9, align 4
  %106 = load i32, ptr %9, align 4
  %107 = add i32 %106, 1
  %108 = call i32 @cr_add_interval(ptr noundef %104, i32 noundef %105, i32 noundef %107)
  %109 = icmp ne i32 %108, 0
  br i1 %109, label %110, label %111

110:                                              ; preds = %103
  store i32 -1, ptr %3, align 4
  br label %136

111:                                              ; preds = %103
  br label %112

112:                                              ; preds = %111
  %113 = load i32, ptr %9, align 4
  %114 = add i32 %113, 2
  store i32 %114, ptr %9, align 4
  br label %99, !llvm.loop !31

115:                                              ; preds = %99
  br label %116

116:                                              ; preds = %115
  br label %117

117:                                              ; preds = %116, %83
  br label %134

118:                                              ; preds = %75
  %119 = load i32, ptr %5, align 4
  %120 = load i32, ptr %12, align 4
  %121 = lshr i32 %119, %120
  %122 = and i32 %121, 1
  %123 = icmp ne i32 %122, 0
  br i1 %123, label %124, label %133

124:                                              ; preds = %118
  br label %125

125:                                              ; preds = %124, %91
  %126 = load ptr, ptr %4, align 8
  %127 = load i32, ptr %9, align 4
  %128 = load i32, ptr %8, align 4
  %129 = call i32 @cr_add_interval(ptr noundef %126, i32 noundef %127, i32 noundef %128)
  %130 = icmp ne i32 %129, 0
  br i1 %130, label %131, label %132

131:                                              ; preds = %125
  store i32 -1, ptr %3, align 4
  br label %136

132:                                              ; preds = %125
  br label %133

133:                                              ; preds = %132, %118
  br label %134

134:                                              ; preds = %133, %117
  br label %13, !llvm.loop !32

135:                                              ; preds = %13
  store i32 0, ptr %3, align 4
  br label %136

136:                                              ; preds = %135, %131, %110
  %137 = load i32, ptr %3, align 4
  ret i32 %137
}