; Function Attrs: nounwind uwtable
define internal fastcc noundef i32 @unicode_general_category1(ptr nocapture noundef %0, i32 noundef %1) unnamed_addr #5 {
  %3 = and i32 %1, 6
  %4 = getelementptr inbounds i8, ptr %0, i64 4
  %.phi.trans.insert.i53 = getelementptr inbounds i8, ptr %0, i64 8
  %5 = getelementptr inbounds i8, ptr %0, i64 24
  %6 = getelementptr inbounds i8, ptr %0, i64 16
  %7 = lshr i32 %1, 2
  %.lobit = and i32 %7, 1
  br label %8

8:                                                ; preds = %2, %.loopexit
  %.04268 = phi i32 [ 0, %2 ], [ %42, %.loopexit ]
  %.04367 = phi ptr [ @unicode_gc_table, %2 ], [ %.1, %.loopexit ]
  %9 = getelementptr i8, ptr %.04367, i64 1
  %10 = load i8, ptr %.04367, align 1
  %11 = zext i8 %10 to i32
  %12 = lshr i32 %11, 5
  %13 = and i32 %11, 31
  %14 = icmp eq i32 %12, 7
  br i1 %14, label %15, label %40

15:                                               ; preds = %8
  %16 = getelementptr i8, ptr %.04367, i64 2
  %17 = load i8, ptr %9, align 1
  %18 = zext i8 %17 to i32
  %19 = icmp sgt i8 %17, -1
  br i1 %19, label %20, label %22

20:                                               ; preds = %15
  %21 = add nuw nsw i32 %18, 7
  br label %40

22:                                               ; preds = %15
  %23 = icmp ult i8 %17, -64
  %24 = getelementptr i8, ptr %.04367, i64 3
  %25 = load i8, ptr %16, align 1
  %26 = zext i8 %25 to i32
  br i1 %23, label %27, label %31

27:                                               ; preds = %22
  %28 = shl nuw nsw i32 %18, 8
  %29 = add nsw i32 %28, -32633
  %30 = add nuw nsw i32 %29, %26
  br label %40

31:                                               ; preds = %22
  %32 = shl nuw nsw i32 %18, 16
  %33 = shl nuw nsw i32 %26, 8
  %34 = getelementptr i8, ptr %.04367, i64 4
  %35 = load i8, ptr %24, align 1
  %36 = zext i8 %35 to i32
  %37 = add nsw i32 %32, -12566393
  %38 = add nuw nsw i32 %37, %36
  %39 = add nuw nsw i32 %38, %33
  br label %40

40:                                               ; preds = %20, %31, %27, %8
  %.1 = phi ptr [ %16, %20 ], [ %24, %27 ], [ %34, %31 ], [ %9, %8 ]
  %.040 = phi i32 [ %21, %20 ], [ %30, %27 ], [ %39, %31 ], [ %12, %8 ]
  %41 = add i32 %.04268, 1
  %42 = add i32 %41, %.040
  %43 = icmp eq i32 %13, 31
  br i1 %43, label %44, label %75

44:                                               ; preds = %40
  switch i32 %3, label %45 [
    i32 0, label %.loopexit
    i32 6, label %78
  ]

45:                                               ; preds = %44
  %46 = add i32 %.04268, %.lobit
  %47 = icmp ult i32 %46, %42
  br i1 %47, label %.lr.ph, label %.loopexit

.lr.ph:                                           ; preds = %45, %62
  %.04166 = phi i32 [ %73, %62 ], [ %46, %45 ]
  %48 = add nuw i32 %.04166, 1
  %49 = load i32, ptr %0, align 8
  %50 = add i32 %49, 2
  %51 = load i32, ptr %4, align 4
  %52 = icmp sgt i32 %50, %51
  br i1 %52, label %53, label %._crit_edge.i

._crit_edge.i:                                    ; preds = %.lr.ph
  %.pre.i = load ptr, ptr %.phi.trans.insert.i53, align 8
  br label %62

53:                                               ; preds = %.lr.ph
  %54 = mul i32 %51, 3
  %55 = sdiv i32 %54, 2
  %..i.i.i = tail call noundef i32 @llvm.smax.i32(i32 %50, i32 %55)
  %56 = load ptr, ptr %5, align 8
  %57 = load ptr, ptr %6, align 8
  %58 = load ptr, ptr %.phi.trans.insert.i53, align 8
  %59 = sext i32 %..i.i.i to i64
  %60 = shl nsw i64 %59, 2
  %61 = tail call ptr %56(ptr noundef %57, ptr noundef %58, i64 noundef %60) #20
  %.not.i.i = icmp eq ptr %61, null
  br i1 %.not.i.i, label %cr_add_interval.exit, label %cr_realloc.exit.thread.i

cr_realloc.exit.thread.i:                         ; preds = %53
  store ptr %61, ptr %.phi.trans.insert.i53, align 8
  store i32 %..i.i.i, ptr %4, align 4
  %.pre13.i = load i32, ptr %0, align 8
  br label %62

62:                                               ; preds = %._crit_edge.i, %cr_realloc.exit.thread.i
  %63 = phi i32 [ %49, %._crit_edge.i ], [ %.pre13.i, %cr_realloc.exit.thread.i ]
  %64 = phi ptr [ %.pre.i, %._crit_edge.i ], [ %61, %cr_realloc.exit.thread.i ]
  %65 = add i32 %63, 1
  store i32 %65, ptr %0, align 8
  %66 = sext i32 %63 to i64
  %67 = getelementptr i32, ptr %64, i64 %66
  store i32 %.04166, ptr %67, align 4
  %68 = load ptr, ptr %.phi.trans.insert.i53, align 8
  %69 = load i32, ptr %0, align 8
  %70 = add i32 %69, 1
  store i32 %70, ptr %0, align 8
  %71 = sext i32 %69 to i64
  %72 = getelementptr i32, ptr %68, i64 %71
  store i32 %48, ptr %72, align 4
  %73 = add i32 %.04166, 2
  %74 = icmp ult i32 %73, %42
  br i1 %74, label %.lr.ph, label %.loopexit, !llvm.loop !37

75:                                               ; preds = %40
  %76 = shl nuw nsw i32 1, %13
  %77 = and i32 %76, %1
  %.not = icmp eq i32 %77, 0
  br i1 %.not, label %.loopexit, label %78

78:                                               ; preds = %44, %75
  %79 = load i32, ptr %0, align 8
  %80 = add i32 %79, 2
  %81 = load i32, ptr %4, align 4
  %82 = icmp sgt i32 %80, %81
  br i1 %82, label %83, label %._crit_edge.i52

._crit_edge.i52:                                  ; preds = %78
  %.pre.i54 = load ptr, ptr %.phi.trans.insert.i53, align 8
  br label %cr_add_interval.exit60.thread

83:                                               ; preds = %78
  %84 = mul i32 %81, 3
  %85 = sdiv i32 %84, 2
  %..i.i.i56 = tail call noundef i32 @llvm.smax.i32(i32 %80, i32 %85)
  %86 = load ptr, ptr %5, align 8
  %87 = load ptr, ptr %6, align 8
  %88 = load ptr, ptr %.phi.trans.insert.i53, align 8
  %89 = sext i32 %..i.i.i56 to i64
  %90 = shl nsw i64 %89, 2
  %91 = tail call ptr %86(ptr noundef %87, ptr noundef %88, i64 noundef %90) #20
  %.not.i.i57 = icmp eq ptr %91, null
  br i1 %.not.i.i57, label %cr_add_interval.exit, label %cr_realloc.exit.thread.i58

cr_realloc.exit.thread.i58:                       ; preds = %83
  store ptr %91, ptr %.phi.trans.insert.i53, align 8
  store i32 %..i.i.i56, ptr %4, align 4
  %.pre13.i59 = load i32, ptr %0, align 8
  br label %cr_add_interval.exit60.thread

cr_add_interval.exit60.thread:                    ; preds = %._crit_edge.i52, %cr_realloc.exit.thread.i58
  %92 = phi i32 [ %79, %._crit_edge.i52 ], [ %.pre13.i59, %cr_realloc.exit.thread.i58 ]
  %93 = phi ptr [ %.pre.i54, %._crit_edge.i52 ], [ %91, %cr_realloc.exit.thread.i58 ]
  %94 = add i32 %92, 1
  store i32 %94, ptr %0, align 8
  %95 = sext i32 %92 to i64
  %96 = getelementptr i32, ptr %93, i64 %95
  store i32 %.04268, ptr %96, align 4
  %97 = load ptr, ptr %.phi.trans.insert.i53, align 8
  %98 = load i32, ptr %0, align 8
  %99 = add i32 %98, 1
  store i32 %99, ptr %0, align 8
  %100 = sext i32 %98 to i64
  %101 = getelementptr i32, ptr %97, i64 %100
  store i32 %42, ptr %101, align 4
  br label %.loopexit

.loopexit:                                        ; preds = %62, %45, %cr_add_interval.exit60.thread, %44, %75
  %102 = icmp ult ptr %.1, getelementptr inbounds ([3948 x i8], ptr @unicode_gc_table, i64 1, i64 0)
  br i1 %102, label %8, label %cr_add_interval.exit, !llvm.loop !38

cr_add_interval.exit:                             ; preds = %83, %.loopexit, %53
  %.0 = phi i32 [ -1, %53 ], [ -1, %83 ], [ 0, %.loopexit ]
  ret i32 %.0
}